target datalayout = "e-m:e-p270:32:32-p271:32:32-p272:64:64-i64:64-i128:128-f80:128-n8:16:32:64-S128"
target triple = "x86_64-pc-linux-gnu"

%"class.llvm::SmallVectorBase" = type { ptr, i32, i32 }
%"class.(anonymous namespace)::SequenceChecker::SequenceTree" = type { %"class.llvm::SmallVector.1481" }
%"class.llvm::SmallVector.1481" = type { %"class.llvm::SmallVectorImpl.1482", %"struct.llvm::SmallVectorStorage.1485" }
%"class.llvm::SmallVectorImpl.1482" = type { %"class.llvm::SmallVectorTemplateBase.1483" }
%"class.llvm::SmallVectorTemplateBase.1483" = type { %"class.llvm::SmallVectorTemplateCommon.1484" }
%"class.llvm::SmallVectorTemplateCommon.1484" = type { %"class.llvm::SmallVectorBase" }
%"struct.llvm::SmallVectorStorage.1485" = type { [32 x i8] }
%"struct.(anonymous namespace)::SequenceChecker::SequenceTree::Value" = type { i32 }

; Function Attrs: mustprogress nounwind uwtable
define internal noundef ptr @_ZN4llvm25SmallVectorTemplateCommonIN12_GLOBAL__N_115SequenceChecker12SequenceTree5ValueEvE5beginEv(ptr noundef nonnull align 8 dereferenceable(16) %0) #0 align 2 {
  %2 = alloca ptr, align 8
  store ptr %0, ptr %2, align 8
  %3 = load ptr, ptr %2, align 8
  %4 = getelementptr inbounds nuw %"class.llvm::SmallVectorBase", ptr %3, i32 0, i32 0
  %5 = load ptr, ptr %4, align 8
  ret ptr %5
}

; Function Attrs: mustprogress nounwind uwtable
define internal noundef nonnull align 4 dereferenceable(4) ptr @_ZN4llvm25SmallVectorTemplateCommonIN12_GLOBAL__N_115SequenceChecker12SequenceTree5ValueEvEixEm(ptr noundef nonnull align 8 dereferenceable(16) %0, i64 noundef %1) #0 align 2 {
  %3 = alloca ptr, align 8
  %4 = alloca i64, align 8
  store ptr %0, ptr %3, align 8
  store i64 %1, ptr %4, align 8
  %5 = load ptr, ptr %3, align 8
  %6 = call noundef ptr @_ZN4llvm25SmallVectorTemplateCommonIN12_GLOBAL__N_115SequenceChecker12SequenceTree5ValueEvE5beginEv(ptr noundef nonnull align 8 dereferenceable(16) %5)
  %7 = load i64, ptr %4, align 8
  %8 = getelementptr inbounds %"struct.(anonymous namespace)::SequenceChecker::SequenceTree::Value", ptr %6, i64 %7
  ret ptr %8
}

; Function Attrs: mustprogress nounwind uwtable
define internal noundef i32 @_ZN12_GLOBAL__N_115SequenceChecker12SequenceTree14representativeEj(ptr noundef nonnull align 8 dereferenceable(48) %0, i32 noundef %1) #0 align 2 {
  %3 = alloca i32, align 4
  %4 = alloca ptr, align 8
  %5 = alloca i32, align 4
  store ptr %0, ptr %4, align 8
  store i32 %1, ptr %5, align 4
  %6 = load ptr, ptr %4, align 8
  %7 = getelementptr inbounds nuw %"class.(anonymous namespace)::SequenceChecker::SequenceTree", ptr %6, i32 0, i32 0
  %8 = load i32, ptr %5, align 4
  %9 = zext i32 %8 to i64
  %10 = call noundef nonnull align 4 dereferenceable(4) ptr @_ZN4llvm25SmallVectorTemplateCommonIN12_GLOBAL__N_115SequenceChecker12SequenceTree5ValueEvEixEm(ptr noundef nonnull align 8 dereferenceable(16) %7, i64 noundef %9)
  %11 = load i32, ptr %10, align 4
  %12 = lshr i32 %11, 31
  %13 = icmp ne i32 %12, 0
  br i1 %13, label %14, label %30

14:                                               ; preds = %2
  %15 = getelementptr inbounds nuw %"class.(anonymous namespace)::SequenceChecker::SequenceTree", ptr %6, i32 0, i32 0
  %16 = load i32, ptr %5, align 4
  %17 = zext i32 %16 to i64
  %18 = call noundef nonnull align 4 dereferenceable(4) ptr @_ZN4llvm25SmallVectorTemplateCommonIN12_GLOBAL__N_115SequenceChecker12SequenceTree5ValueEvEixEm(ptr noundef nonnull align 8 dereferenceable(16) %15, i64 noundef %17)
  %19 = load i32, ptr %18, align 4
  %20 = and i32 %19, 2147483647
  %21 = call noundef i32 @_ZN12_GLOBAL__N_115SequenceChecker12SequenceTree14representativeEj(ptr noundef nonnull align 8 dereferenceable(48) %6, i32 noundef %20)
  %22 = getelementptr inbounds nuw %"class.(anonymous namespace)::SequenceChecker::SequenceTree", ptr %6, i32 0, i32 0
  %23 = load i32, ptr %5, align 4
  %24 = zext i32 %23 to i64
  %25 = call noundef nonnull align 4 dereferenceable(4) ptr @_ZN4llvm25SmallVectorTemplateCommonIN12_GLOBAL__N_115SequenceChecker12SequenceTree5ValueEvEixEm(ptr noundef nonnull align 8 dereferenceable(16) %22, i64 noundef %24)
  %26 = load i32, ptr %25, align 4
  %27 = and i32 %21, 2147483647
  %28 = and i32 %26, -2147483648
  %29 = or i32 %28, %27
  store i32 %29, ptr %25, align 4
  store i32 %27, ptr %3, align 4
  br label %32

30:                                               ; preds = %2
  %31 = load i32, ptr %5, align 4
  store i32 %31, ptr %3, align 4
  br label %32

32:                                               ; preds = %30, %14
  %33 = load i32, ptr %3, align 4
  ret i32 %33
}