; Function Attrs: mustprogress nofree nosync nounwind memory(readwrite, inaccessiblemem: none) uwtable
define internal fastcc noundef i32 @_ZN12_GLOBAL__N_115SequenceChecker12SequenceTree14representativeEj(ptr nocapture noundef nonnull readonly align 8 dereferenceable(48) %0, i32 noundef %1) unnamed_addr #20 align 2 {
  %3 = zext i32 %1 to i64
  %.val = load ptr, ptr %0, align 8
  %4 = getelementptr inbounds %"struct.(anonymous namespace)::SequenceChecker::SequenceTree::Value", ptr %.val, i64 %3
  %5 = load i32, ptr %4, align 4
  %.not = icmp sgt i32 %5, -1
  br i1 %.not, label %common.ret7, label %6

common.ret7:                                      ; preds = %2, %6
  %common.ret7.op = phi i32 [ %11, %6 ], [ %1, %2 ]
  ret i32 %common.ret7.op

6:                                                ; preds = %2
  %7 = and i32 %5, 2147483647
  %8 = tail call fastcc noundef i32 @_ZN12_GLOBAL__N_115SequenceChecker12SequenceTree14representativeEj(ptr noundef nonnull align 8 dereferenceable(48) %0, i32 noundef %7)
  %.val6 = load ptr, ptr %0, align 8
  %9 = getelementptr inbounds %"struct.(anonymous namespace)::SequenceChecker::SequenceTree::Value", ptr %.val6, i64 %3
  %10 = load i32, ptr %9, align 4
  %11 = and i32 %8, 2147483647
  %12 = and i32 %10, -2147483648
  %13 = or disjoint i32 %12, %11
  store i32 %13, ptr %9, align 4
  br label %common.ret7
}